target datalayout = "e-m:e-p270:32:32-p271:32:32-p272:64:64-i64:64-i128:128-f80:128-n8:16:32:64-S128"
target triple = "x86_64-pc-linux-gnu"

%struct.t_psdata = type { ptr, %"class.std::vector", float, i32 }
%"class.std::vector" = type { %"struct.std::_Vector_base" }
%"struct.std::_Vector_base" = type { %"struct.std::_Vector_base<t_rgb, std::allocator<t_rgb>>::_Vector_impl" }
%"struct.std::_Vector_base<t_rgb, std::allocator<t_rgb>>::_Vector_impl" = type { %"struct.std::_Vector_base<t_rgb, std::allocator<t_rgb>>::_Vector_impl_data" }
%"struct.std::_Vector_base<t_rgb, std::allocator<t_rgb>>::_Vector_impl_data" = type { ptr, ptr, ptr }
%struct.t_rgb = type { double, double, double }

@.str.34 = private unnamed_addr constant [6 x i8] c"B%zd\0A\00", align 1

; Function Attrs: mustprogress uwtable
define void @_Z10ps_rgb_boxP8t_psdataP5t_rgb(ptr noundef %0, ptr noundef %1) #0 {
  %3 = alloca ptr, align 8
  %4 = alloca ptr, align 8
  store ptr %0, ptr %3, align 8, !tbaa !26
  store ptr %1, ptr %4, align 8, !tbaa !68
  %5 = load ptr, ptr %3, align 8, !tbaa !26
  %6 = getelementptr inbounds nuw %struct.t_psdata, ptr %5, i32 0, i32 0
  %7 = load ptr, ptr %6, align 8, !tbaa !17
  %8 = load ptr, ptr %3, align 8, !tbaa !26
  %9 = load ptr, ptr %4, align 8, !tbaa !68
  %10 = getelementptr inbounds nuw %struct.t_rgb, ptr %9, i32 0, i32 0
  %11 = load double, ptr %10, align 8, !tbaa !70
  %12 = fptrunc double %11 to float
  %13 = load ptr, ptr %4, align 8, !tbaa !68
  %14 = getelementptr inbounds nuw %struct.t_rgb, ptr %13, i32 0, i32 1
  %15 = load double, ptr %14, align 8, !tbaa !73
  %16 = fptrunc double %15 to float
  %17 = load ptr, ptr %4, align 8, !tbaa !68
  %18 = getelementptr inbounds nuw %struct.t_rgb, ptr %17, i32 0, i32 2
  %19 = load double, ptr %18, align 8, !tbaa !74
  %20 = fptrunc double %19 to float
  %21 = call noundef i64 @_ZL10search_colP8t_psdatafff(ptr noundef %8, float noundef %12, float noundef %16, float noundef %20)
  %22 = call i32 (ptr, ptr, ...) @fprintf(ptr noundef %7, ptr noundef @.str.34, i64 noundef %21) #14
  ret void
}