; Function Attrs: mustprogress uwtable
define void @_Z10ps_rgb_boxP8t_psdataP5t_rgb(ptr noundef captures(none) %0, ptr noundef readonly captures(none) %1) local_unnamed_addr #3 {
  %3 = load ptr, ptr %0, align 8, !tbaa !9
  %4 = load double, ptr %1, align 8, !tbaa !36
  %5 = fptrunc double %4 to float
  %6 = getelementptr inbounds nuw i8, ptr %1, i64 8
  %7 = load double, ptr %6, align 8, !tbaa !39
  %8 = fptrunc double %7 to float
  %9 = getelementptr inbounds nuw i8, ptr %1, i64 16
  %10 = load double, ptr %9, align 8, !tbaa !40
  %11 = fptrunc double %10 to float
  %12 = tail call fastcc noundef i64 @_ZL10search_colP8t_psdatafff(ptr noundef nonnull %0, float noundef %5, float noundef %8, float noundef %11)
  %13 = tail call i32 (ptr, ptr, ...) @fprintf(ptr noundef %3, ptr noundef nonnull @.str.34, i64 noundef %12) #18
  ret void
}